target datalayout = "e-m:e-p270:32:32-p271:32:32-p272:64:64-i64:64-i128:128-f80:128-n8:16:32:64-S128"
target triple = "x86_64-pc-linux-gnu"

%struct.PauliHamil = type { ptr, ptr, i32, i32 }

@errMsgBuffer = global [1024 x i8] zeroinitializer, align 16

; Function Attrs: nounwind uwtable
define void @validateHamilFileCoeffParsed(i32 noundef %0, ptr noundef byval(%struct.PauliHamil) align 8 %1, ptr noundef %2, ptr noundef %3, ptr noundef %4) #0 {
  %6 = alloca i32, align 4
  %7 = alloca ptr, align 8
  %8 = alloca ptr, align 8
  %9 = alloca ptr, align 8
  store i32 %0, ptr %6, align 4, !tbaa !9
  store ptr %2, ptr %7, align 8, !tbaa !53
  store ptr %3, ptr %8, align 8, !tbaa !4
  store ptr %4, ptr %9, align 8, !tbaa !4
  %10 = load i32, ptr %6, align 4, !tbaa !9
  %11 = icmp ne i32 %10, 0
  br i1 %11, label %19, label %12

12:                                               ; preds = %5
  call void @destroyPauliHamil(ptr noundef byval(%struct.PauliHamil) align 8 %1)
  %13 = load ptr, ptr %7, align 8, !tbaa !53
  %14 = call i32 @fclose(ptr noundef %13)
  %15 = load ptr, ptr getelementptr inbounds ([92 x ptr], ptr @errorMessages, i64 0, i64 60), align 16, !tbaa !4
  %16 = load ptr, ptr %8, align 8, !tbaa !4
  %17 = call i32 (ptr, ptr, ...) @sprintf(ptr noundef @errMsgBuffer, ptr noundef %15, ptr noundef %16) #7
  %18 = load ptr, ptr %9, align 8, !tbaa !4
  call void @invalidQuESTInputError(ptr noundef @errMsgBuffer, ptr noundef %18)
  br label %19

19:                                               ; preds = %12, %5
  ret void
}